target datalayout = "e-m:e-p270:32:32-p271:32:32-p272:64:64-i64:64-i128:128-f80:128-n8:16:32:64-S128"
target triple = "x86_64-pc-linux-gnu"

%struct.H5C_class_t = type { i32, ptr, i32, i32, ptr, ptr, ptr, ptr, ptr, ptr, ptr, ptr, ptr, ptr }
%struct.H5HF_direct_t = type { %struct.H5C_cache_entry_t, ptr, ptr, ptr, i32, i64, i64, ptr, ptr, i64, i64 }
%struct.H5C_cache_entry_t = type { ptr, i64, i64, ptr, i8, ptr, i8, i8, i8, i8, i32, i8, i8, i8, i8, i8, i32, ptr, i32, i32, i32, i32, i32, i8, i8, ptr, ptr, ptr, ptr, ptr, ptr, i8, i32, i8, i64, ptr, i64, i64, i32, i8, i32, i32, i8, ptr, ptr, ptr }
%struct.H5HF_hdr_t = type { %struct.H5C_cache_entry_t, i32, i32, i8, i8, i8, i8, %struct.H5HF_dtable_t, i64, i64, i32, i64, i64, %struct.H5O_pline_t, i64, i32, i64, i64, i64, i64, i64, i64, i64, i64, i64, i64, i64, i32, ptr, i64, i8, i8, i8, ptr, i32, ptr, %struct.H5HF_block_iter_t, ptr, i64, i8, i8, i64, i8, i8, i8, i8 }
%struct.H5HF_dtable_t = type { %struct.H5HF_dtable_cparam_t, i64, i32, i32, i32, i32, i32, i32, i32, i64, ptr, ptr, ptr, ptr }
%struct.H5HF_dtable_cparam_t = type { i32, i64, i64, i32, i32 }
%struct.H5O_pline_t = type { %struct.H5O_shared_t, i32, i64, i64, ptr }
%struct.H5O_shared_t = type { i32, ptr, i32, %union.anon }
%union.anon = type { %struct.H5O_mesg_loc_t }
%struct.H5O_mesg_loc_t = type { i32, i64 }
%struct.H5HF_block_iter_t = type { i8, ptr }
%struct.H5HF_indirect_t = type { %struct.H5C_cache_entry_t, i64, ptr, ptr, ptr, i32, i64, i64, i32, i32, i32, i32, ptr, i8, i64, ptr, ptr }
%struct.H5HF_indirect_filt_ent_t = type { i64, i32 }

@.str.1 = private unnamed_addr constant [104 x i8] c"generated/home/dtcxzyw/WorkSpace/Projects/compilers/llvm-opt-benchmark/bench/hdf5/hdf5/src/H5HFdblock.c\00", align 1
@H5E_HEAP_g = external global i64, align 8
@H5E_CANTATTACH_g = external global i64, align 8
@H5AC_FHEAP_DBLOCK = external constant [1 x %struct.H5C_class_t], align 16
@H5E_CANTRELEASE_g = external global i64, align 8
@__func__.H5HF__man_dblock_destroy = private unnamed_addr constant [25 x i8] c"H5HF__man_dblock_destroy\00", align 1
@H5E_CANTSHRINK_g = external global i64, align 8
@.str.12 = private unnamed_addr constant [22 x i8] c"can't make heap empty\00", align 1
@.str.13 = private unnamed_addr constant [36 x i8] c"can't reverse 'next block' iterator\00", align 1
@H5E_CANTUNDEPEND_g = external global i64, align 8
@.str.14 = private unnamed_addr constant [35 x i8] c"unable to destroy flush dependency\00", align 1
@.str.15 = private unnamed_addr constant [40 x i8] c"can't detach from parent indirect block\00", align 1
@H5E_CANTUNPROTECT_g = external global i64, align 8
@.str.16 = private unnamed_addr constant [44 x i8] c"unable to release fractal heap direct block\00", align 1

; Function Attrs: nounwind uwtable
define i32 @H5HF__man_dblock_destroy(ptr noundef %0, ptr noundef %1, i64 noundef %2, ptr noundef %3) #0 {
  %5 = alloca ptr, align 8
  %6 = alloca ptr, align 8
  %7 = alloca i64, align 8
  %8 = alloca ptr, align 8
  %9 = alloca i64, align 8
  %10 = alloca i32, align 4
  %11 = alloca i32, align 4
  %12 = alloca i8, align 1
  %13 = alloca ptr, align 8
  %14 = alloca i32, align 4
  store ptr %0, ptr %5, align 8
  store ptr %1, ptr %6, align 8
  store i64 %2, ptr %7, align 8
  store ptr %3, ptr %8, align 8
  store i32 0, ptr %10, align 4
  store i32 0, ptr %11, align 4
  store i8 0, ptr %12, align 1
  %15 = load ptr, ptr %5, align 8
  %16 = getelementptr inbounds %struct.H5HF_hdr_t, ptr %15, i32 0, i32 2
  %17 = load i32, ptr %16, align 4
  %18 = icmp ugt i32 %17, 0
  br i1 %18, label %19, label %44

19:                                               ; preds = %4
  %20 = load ptr, ptr %6, align 8
  %21 = getelementptr inbounds %struct.H5HF_direct_t, ptr %20, i32 0, i32 2
  %22 = load ptr, ptr %21, align 8
  %23 = icmp eq ptr %22, null
  br i1 %23, label %24, label %28

24:                                               ; preds = %19
  %25 = load ptr, ptr %5, align 8
  %26 = getelementptr inbounds %struct.H5HF_hdr_t, ptr %25, i32 0, i32 14
  %27 = load i64, ptr %26, align 8
  store i64 %27, ptr %9, align 8
  br label %43

28:                                               ; preds = %19
  %29 = load ptr, ptr %6, align 8
  %30 = getelementptr inbounds %struct.H5HF_direct_t, ptr %29, i32 0, i32 2
  %31 = load ptr, ptr %30, align 8
  store ptr %31, ptr %13, align 8
  %32 = load ptr, ptr %6, align 8
  %33 = getelementptr inbounds %struct.H5HF_direct_t, ptr %32, i32 0, i32 4
  %34 = load i32, ptr %33, align 8
  store i32 %34, ptr %14, align 4
  %35 = load ptr, ptr %13, align 8
  %36 = getelementptr inbounds %struct.H5HF_indirect_t, ptr %35, i32 0, i32 16
  %37 = load ptr, ptr %36, align 8
  %38 = load i32, ptr %14, align 4
  %39 = zext i32 %38 to i64
  %40 = getelementptr inbounds %struct.H5HF_indirect_filt_ent_t, ptr %37, i64 %39
  %41 = getelementptr inbounds %struct.H5HF_indirect_filt_ent_t, ptr %40, i32 0, i32 0
  %42 = load i64, ptr %41, align 8
  store i64 %42, ptr %9, align 8
  br label %43

43:                                               ; preds = %28, %24
  br label %48

44:                                               ; preds = %4
  %45 = load ptr, ptr %6, align 8
  %46 = getelementptr inbounds %struct.H5HF_direct_t, ptr %45, i32 0, i32 5
  %47 = load i64, ptr %46, align 8
  store i64 %47, ptr %9, align 8
  br label %48

48:                                               ; preds = %44, %43
  %49 = load ptr, ptr %8, align 8
  %50 = icmp ne ptr %49, null
  br i1 %50, label %51, label %53

51:                                               ; preds = %48
  %52 = load ptr, ptr %8, align 8
  store i8 0, ptr %52, align 1
  br label %53

53:                                               ; preds = %51, %48
  %54 = load ptr, ptr %5, align 8
  %55 = getelementptr inbounds %struct.H5HF_hdr_t, ptr %54, i32 0, i32 7
  %56 = getelementptr inbounds %struct.H5HF_dtable_t, ptr %55, i32 0, i32 2
  %57 = load i32, ptr %56, align 8
  %58 = icmp eq i32 %57, 0
  br i1 %58, label %59, label %79

59:                                               ; preds = %53
  %60 = load ptr, ptr %5, align 8
  %61 = call i32 @H5HF__hdr_empty(ptr noundef %60)
  %62 = icmp slt i32 %61, 0
  br i1 %62, label %63, label %78

63:                                               ; preds = %59
  br label %64

64:                                               ; preds = %63
  br label %65

65:                                               ; preds = %64
  br label %66

66:                                               ; preds = %65
  %67 = load i64, ptr @H5E_HEAP_g, align 8
  %68 = load i64, ptr @H5E_CANTSHRINK_g, align 8
  %69 = call i32 (ptr, ptr, i32, i64, i64, ptr, ...) @H5E_printf_stack(ptr noundef @.str.1, ptr noundef @__func__.H5HF__man_dblock_destroy, i32 noundef 262, i64 noundef %67, i64 noundef %68, ptr noundef @.str.12)
  br label %70

70:                                               ; preds = %66
  store i8 1, ptr %12, align 1
  %71 = load i8, ptr %12, align 1
  %72 = trunc i8 %71 to i1
  %73 = zext i1 %72 to i8
  store i8 %73, ptr %12, align 1
  br label %74

74:                                               ; preds = %70
  br label %75

75:                                               ; preds = %74
  store i32 -1, ptr %11, align 4
  br label %205

76:                                               ; No predecessors!
  br label %77

77:                                               ; preds = %76
  br label %78

78:                                               ; preds = %77, %59
  br label %190

79:                                               ; preds = %53
  %80 = load ptr, ptr %6, align 8
  %81 = getelementptr inbounds %struct.H5HF_direct_t, ptr %80, i32 0, i32 5
  %82 = load i64, ptr %81, align 8
  %83 = load ptr, ptr %5, align 8
  %84 = getelementptr inbounds %struct.H5HF_hdr_t, ptr %83, i32 0, i32 17
  %85 = load i64, ptr %84, align 8
  %86 = sub i64 %85, %82
  store i64 %86, ptr %84, align 8
  %87 = load ptr, ptr %6, align 8
  %88 = getelementptr inbounds %struct.H5HF_direct_t, ptr %87, i32 0, i32 10
  %89 = load i64, ptr %88, align 8
  %90 = load ptr, ptr %6, align 8
  %91 = getelementptr inbounds %struct.H5HF_direct_t, ptr %90, i32 0, i32 5
  %92 = load i64, ptr %91, align 8
  %93 = add i64 %89, %92
  %94 = load ptr, ptr %5, align 8
  %95 = getelementptr inbounds %struct.H5HF_hdr_t, ptr %94, i32 0, i32 18
  %96 = load i64, ptr %95, align 8
  %97 = icmp eq i64 %93, %96
  br i1 %97, label %98, label %119

98:                                               ; preds = %79
  %99 = load ptr, ptr %5, align 8
  %100 = load i64, ptr %7, align 8
  %101 = call i32 @H5HF__hdr_reverse_iter(ptr noundef %99, i64 noundef %100)
  %102 = icmp slt i32 %101, 0
  br i1 %102, label %103, label %118

103:                                              ; preds = %98
  br label %104

104:                                              ; preds = %103
  br label %105

105:                                              ; preds = %104
  br label %106

106:                                              ; preds = %105
  %107 = load i64, ptr @H5E_HEAP_g, align 8
  %108 = load i64, ptr @H5E_CANTRELEASE_g, align 8
  %109 = call i32 (ptr, ptr, i32, i64, i64, ptr, ...) @H5E_printf_stack(ptr noundef @.str.1, ptr noundef @__func__.H5HF__man_dblock_destroy, i32 noundef 272, i64 noundef %107, i64 noundef %108, ptr noundef @.str.13)
  br label %110

110:                                              ; preds = %106
  store i8 1, ptr %12, align 1
  %111 = load i8, ptr %12, align 1
  %112 = trunc i8 %111 to i1
  %113 = zext i1 %112 to i8
  store i8 %113, ptr %12, align 1
  br label %114

114:                                              ; preds = %110
  br label %115

115:                                              ; preds = %114
  store i32 -1, ptr %11, align 4
  br label %205

116:                                              ; No predecessors!
  br label %117

117:                                              ; preds = %116
  br label %118

118:                                              ; preds = %117, %98
  br label %119

119:                                              ; preds = %118, %79
  %120 = load ptr, ptr %6, align 8
  %121 = getelementptr inbounds %struct.H5HF_direct_t, ptr %120, i32 0, i32 2
  %122 = load ptr, ptr %121, align 8
  %123 = icmp ne ptr %122, null
  br i1 %123, label %124, label %189

124:                                              ; preds = %119
  %125 = load ptr, ptr %6, align 8
  %126 = getelementptr inbounds %struct.H5HF_direct_t, ptr %125, i32 0, i32 3
  %127 = load ptr, ptr %126, align 8
  %128 = load ptr, ptr %6, align 8
  %129 = call i32 @H5AC_destroy_flush_dependency(ptr noundef %127, ptr noundef %128)
  %130 = icmp slt i32 %129, 0
  br i1 %130, label %131, label %146

131:                                              ; preds = %124
  br label %132

132:                                              ; preds = %131
  br label %133

133:                                              ; preds = %132
  br label %134

134:                                              ; preds = %133
  %135 = load i64, ptr @H5E_HEAP_g, align 8
  %136 = load i64, ptr @H5E_CANTUNDEPEND_g, align 8
  %137 = call i32 (ptr, ptr, i32, i64, i64, ptr, ...) @H5E_printf_stack(ptr noundef @.str.1, ptr noundef @__func__.H5HF__man_dblock_destroy, i32 noundef 278, i64 noundef %135, i64 noundef %136, ptr noundef @.str.14)
  br label %138

138:                                              ; preds = %134
  store i8 1, ptr %12, align 1
  %139 = load i8, ptr %12, align 1
  %140 = trunc i8 %139 to i1
  %141 = zext i1 %140 to i8
  store i8 %141, ptr %12, align 1
  br label %142

142:                                              ; preds = %138
  br label %143

143:                                              ; preds = %142
  store i32 -1, ptr %11, align 4
  br label %205

144:                                              ; No predecessors!
  br label %145

145:                                              ; preds = %144
  br label %146

146:                                              ; preds = %145, %124
  %147 = load ptr, ptr %6, align 8
  %148 = getelementptr inbounds %struct.H5HF_direct_t, ptr %147, i32 0, i32 3
  store ptr null, ptr %148, align 8
  %149 = load ptr, ptr %8, align 8
  %150 = icmp ne ptr %149, null
  br i1 %150, label %151, label %160

151:                                              ; preds = %146
  %152 = load ptr, ptr %6, align 8
  %153 = getelementptr inbounds %struct.H5HF_direct_t, ptr %152, i32 0, i32 2
  %154 = load ptr, ptr %153, align 8
  %155 = getelementptr inbounds %struct.H5HF_indirect_t, ptr %154, i32 0, i32 10
  %156 = load i32, ptr %155, align 8
  %157 = icmp eq i32 1, %156
  br i1 %157, label %158, label %160

158:                                              ; preds = %151
  %159 = load ptr, ptr %8, align 8
  store i8 1, ptr %159, align 1
  br label %160

160:                                              ; preds = %158, %151, %146
  %161 = load ptr, ptr %6, align 8
  %162 = getelementptr inbounds %struct.H5HF_direct_t, ptr %161, i32 0, i32 2
  %163 = load ptr, ptr %162, align 8
  %164 = load ptr, ptr %6, align 8
  %165 = getelementptr inbounds %struct.H5HF_direct_t, ptr %164, i32 0, i32 4
  %166 = load i32, ptr %165, align 8
  %167 = call i32 @H5HF__man_iblock_detach(ptr noundef %163, i32 noundef %166)
  %168 = icmp slt i32 %167, 0
  br i1 %168, label %169, label %184

169:                                              ; preds = %160
  br label %170

170:                                              ; preds = %169
  br label %171

171:                                              ; preds = %170
  br label %172

172:                                              ; preds = %171
  %173 = load i64, ptr @H5E_HEAP_g, align 8
  %174 = load i64, ptr @H5E_CANTATTACH_g, align 8
  %175 = call i32 (ptr, ptr, i32, i64, i64, ptr, ...) @H5E_printf_stack(ptr noundef @.str.1, ptr noundef @__func__.H5HF__man_dblock_destroy, i32 noundef 288, i64 noundef %173, i64 noundef %174, ptr noundef @.str.15)
  br label %176

176:                                              ; preds = %172
  store i8 1, ptr %12, align 1
  %177 = load i8, ptr %12, align 1
  %178 = trunc i8 %177 to i1
  %179 = zext i1 %178 to i8
  store i8 %179, ptr %12, align 1
  br label %180

180:                                              ; preds = %176
  br label %181

181:                                              ; preds = %180
  store i32 -1, ptr %11, align 4
  br label %205

182:                                              ; No predecessors!
  br label %183

183:                                              ; preds = %182
  br label %184

184:                                              ; preds = %183, %160
  %185 = load ptr, ptr %6, align 8
  %186 = getelementptr inbounds %struct.H5HF_direct_t, ptr %185, i32 0, i32 2
  store ptr null, ptr %186, align 8
  %187 = load ptr, ptr %6, align 8
  %188 = getelementptr inbounds %struct.H5HF_direct_t, ptr %187, i32 0, i32 4
  store i32 0, ptr %188, align 8
  br label %189

189:                                              ; preds = %184, %119
  br label %190

190:                                              ; preds = %189, %78
  %191 = load i64, ptr %9, align 8
  %192 = load ptr, ptr %6, align 8
  %193 = getelementptr inbounds %struct.H5HF_direct_t, ptr %192, i32 0, i32 6
  store i64 %191, ptr %193, align 8
  %194 = load i32, ptr %10, align 4
  %195 = or i32 %194, 3
  store i32 %195, ptr %10, align 4
  %196 = load ptr, ptr %5, align 8
  %197 = getelementptr inbounds %struct.H5HF_hdr_t, ptr %196, i32 0, i32 28
  %198 = load ptr, ptr %197, align 8
  %199 = load i64, ptr %7, align 8
  %200 = call zeroext i1 @H5F_is_tmp_addr(ptr noundef %198, i64 noundef %199)
  br i1 %200, label %204, label %201

201:                                              ; preds = %190
  %202 = load i32, ptr %10, align 4
  %203 = or i32 %202, 256
  store i32 %203, ptr %10, align 4
  br label %204

204:                                              ; preds = %201, %190
  br label %205

205:                                              ; preds = %204, %181, %143, %115, %75
  %206 = load ptr, ptr %5, align 8
  %207 = getelementptr inbounds %struct.H5HF_hdr_t, ptr %206, i32 0, i32 28
  %208 = load ptr, ptr %207, align 8
  %209 = load i64, ptr %7, align 8
  %210 = load ptr, ptr %6, align 8
  %211 = load i32, ptr %10, align 4
  %212 = call i32 @H5AC_unprotect(ptr noundef %208, ptr noundef @H5AC_FHEAP_DBLOCK, i64 noundef %209, ptr noundef %210, i32 noundef %211)
  %213 = icmp slt i32 %212, 0
  br i1 %213, label %214, label %227

214:                                              ; preds = %205
  br label %215

215:                                              ; preds = %214
  br label %216

216:                                              ; preds = %215
  br label %217

217:                                              ; preds = %216
  %218 = load i64, ptr @H5E_HEAP_g, align 8
  %219 = load i64, ptr @H5E_CANTUNPROTECT_g, align 8
  %220 = call i32 (ptr, ptr, i32, i64, i64, ptr, ...) @H5E_printf_stack(ptr noundef @.str.1, ptr noundef @__func__.H5HF__man_dblock_destroy, i32 noundef 305, i64 noundef %218, i64 noundef %219, ptr noundef @.str.16)
  br label %221

221:                                              ; preds = %217
  store i8 1, ptr %12, align 1
  %222 = load i8, ptr %12, align 1
  %223 = trunc i8 %222 to i1
  %224 = zext i1 %223 to i8
  store i8 %224, ptr %12, align 1
  br label %225

225:                                              ; preds = %221
  store i32 -1, ptr %11, align 4
  br label %226

226:                                              ; preds = %225
  br label %227

227:                                              ; preds = %226, %205
  %228 = load i32, ptr %11, align 4
  ret i32 %228
}