; Function Attrs: nounwind uwtable
define range(i32 -1, 1) i32 @H5HF__man_dblock_destroy(ptr noundef %0, ptr noundef %1, i64 noundef %2, ptr noundef writeonly %3) local_unnamed_addr #0 {
  %5 = getelementptr inbounds i8, ptr %0, i64 252
  %6 = load i32, ptr %5, align 4
  %.not = icmp eq i32 %6, 0
  br i1 %.not, label %20, label %7

7:                                                ; preds = %4
  %8 = getelementptr inbounds i8, ptr %1, i64 256
  %9 = load ptr, ptr %8, align 8
  %10 = icmp eq ptr %9, null
  br i1 %10, label %11, label %13

11:                                               ; preds = %7
  %12 = getelementptr inbounds i8, ptr %0, i64 488
  br label %22

13:                                               ; preds = %7
  %14 = getelementptr inbounds i8, ptr %1, i64 272
  %15 = load i32, ptr %14, align 8
  %16 = getelementptr inbounds i8, ptr %9, i64 352
  %17 = load ptr, ptr %16, align 8
  %18 = zext i32 %15 to i64
  %19 = getelementptr inbounds %struct.H5HF_indirect_filt_ent_t, ptr %17, i64 %18
  br label %22

20:                                               ; preds = %4
  %21 = getelementptr inbounds i8, ptr %1, i64 280
  br label %22

22:                                               ; preds = %11, %13, %20
  %.0.in = phi ptr [ %12, %11 ], [ %19, %13 ], [ %21, %20 ]
  %.0 = load i64, ptr %.0.in, align 8
  %.not50 = icmp eq ptr %3, null
  br i1 %.not50, label %24, label %23

23:                                               ; preds = %22
  store i8 0, ptr %3, align 1
  br label %24

24:                                               ; preds = %23, %22
  %25 = getelementptr inbounds i8, ptr %0, i64 304
  %26 = load i32, ptr %25, align 8
  %27 = icmp eq i32 %26, 0
  br i1 %27, label %28, label %35

28:                                               ; preds = %24
  %29 = tail call i32 @H5HF__hdr_empty(ptr noundef nonnull %0) #4
  %30 = icmp slt i32 %29, 0
  br i1 %30, label %31, label %84

31:                                               ; preds = %28
  %32 = load i64, ptr @H5E_HEAP_g, align 8
  %33 = load i64, ptr @H5E_CANTSHRINK_g, align 8
  %34 = tail call i32 (ptr, ptr, i32, i64, i64, ptr, ...) @H5E_printf_stack(ptr noundef nonnull @.str.1, ptr noundef nonnull @__func__.H5HF__man_dblock_destroy, i32 noundef 262, i64 noundef %32, i64 noundef %33, ptr noundef nonnull @.str.12) #4
  br label %89

35:                                               ; preds = %24
  %36 = getelementptr inbounds i8, ptr %1, i64 280
  %37 = load i64, ptr %36, align 8
  %38 = getelementptr inbounds i8, ptr %0, i64 512
  %39 = load i64, ptr %38, align 8
  %40 = sub i64 %39, %37
  store i64 %40, ptr %38, align 8
  %41 = getelementptr inbounds i8, ptr %1, i64 320
  %42 = load i64, ptr %41, align 8
  %43 = load i64, ptr %36, align 8
  %44 = add i64 %43, %42
  %45 = getelementptr inbounds i8, ptr %0, i64 520
  %46 = load i64, ptr %45, align 8
  %47 = icmp eq i64 %44, %46
  br i1 %47, label %48, label %55

48:                                               ; preds = %35
  %49 = tail call i32 @H5HF__hdr_reverse_iter(ptr noundef nonnull %0, i64 noundef %2) #4
  %50 = icmp slt i32 %49, 0
  br i1 %50, label %51, label %55

51:                                               ; preds = %48
  %52 = load i64, ptr @H5E_HEAP_g, align 8
  %53 = load i64, ptr @H5E_CANTRELEASE_g, align 8
  %54 = tail call i32 (ptr, ptr, i32, i64, i64, ptr, ...) @H5E_printf_stack(ptr noundef nonnull @.str.1, ptr noundef nonnull @__func__.H5HF__man_dblock_destroy, i32 noundef 272, i64 noundef %52, i64 noundef %53, ptr noundef nonnull @.str.13) #4
  br label %89

55:                                               ; preds = %48, %35
  %56 = getelementptr inbounds i8, ptr %1, i64 256
  %57 = load ptr, ptr %56, align 8
  %.not51 = icmp eq ptr %57, null
  br i1 %.not51, label %84, label %58

58:                                               ; preds = %55
  %59 = getelementptr inbounds i8, ptr %1, i64 264
  %60 = load ptr, ptr %59, align 8
  %61 = tail call i32 @H5AC_destroy_flush_dependency(ptr noundef %60, ptr noundef nonnull %1) #4
  %62 = icmp slt i32 %61, 0
  br i1 %62, label %63, label %67

63:                                               ; preds = %58
  %64 = load i64, ptr @H5E_HEAP_g, align 8
  %65 = load i64, ptr @H5E_CANTUNDEPEND_g, align 8
  %66 = tail call i32 (ptr, ptr, i32, i64, i64, ptr, ...) @H5E_printf_stack(ptr noundef nonnull @.str.1, ptr noundef nonnull @__func__.H5HF__man_dblock_destroy, i32 noundef 278, i64 noundef %64, i64 noundef %65, ptr noundef nonnull @.str.14) #4
  br label %89

67:                                               ; preds = %58
  store ptr null, ptr %59, align 8
  %.pre52 = load ptr, ptr %56, align 8
  br i1 %.not50, label %73, label %68

68:                                               ; preds = %67
  %69 = getelementptr inbounds i8, ptr %.pre52, i64 312
  %70 = load i32, ptr %69, align 8
  %71 = icmp eq i32 %70, 1
  br i1 %71, label %72, label %73

72:                                               ; preds = %68
  store i8 1, ptr %3, align 1
  %.pre = load ptr, ptr %56, align 8
  br label %73

73:                                               ; preds = %72, %68, %67
  %74 = phi ptr [ %.pre, %72 ], [ %.pre52, %68 ], [ %.pre52, %67 ]
  %75 = getelementptr inbounds i8, ptr %1, i64 272
  %76 = load i32, ptr %75, align 8
  %77 = tail call i32 @H5HF__man_iblock_detach(ptr noundef %74, i32 noundef %76) #4
  %78 = icmp slt i32 %77, 0
  br i1 %78, label %79, label %83

79:                                               ; preds = %73
  %80 = load i64, ptr @H5E_HEAP_g, align 8
  %81 = load i64, ptr @H5E_CANTATTACH_g, align 8
  %82 = tail call i32 (ptr, ptr, i32, i64, i64, ptr, ...) @H5E_printf_stack(ptr noundef nonnull @.str.1, ptr noundef nonnull @__func__.H5HF__man_dblock_destroy, i32 noundef 288, i64 noundef %80, i64 noundef %81, ptr noundef nonnull @.str.15) #4
  br label %89

83:                                               ; preds = %73
  store ptr null, ptr %56, align 8
  store i32 0, ptr %75, align 8
  br label %84

84:                                               ; preds = %55, %83, %28
  %85 = getelementptr inbounds i8, ptr %1, i64 288
  store i64 %.0, ptr %85, align 8
  %86 = getelementptr inbounds i8, ptr %0, i64 600
  %87 = load ptr, ptr %86, align 8
  %88 = tail call zeroext i1 @H5F_is_tmp_addr(ptr noundef %87, i64 noundef %2) #4
  %spec.select = select i1 %88, i32 3, i32 259
  br label %89

89:                                               ; preds = %84, %79, %63, %51, %31
  %.046 = phi i32 [ -1, %31 ], [ -1, %51 ], [ -1, %63 ], [ -1, %79 ], [ 0, %84 ]
  %.045 = phi i32 [ 0, %31 ], [ 0, %51 ], [ 0, %63 ], [ 0, %79 ], [ %spec.select, %84 ]
  %90 = getelementptr inbounds i8, ptr %0, i64 600
  %91 = load ptr, ptr %90, align 8
  %92 = tail call i32 @H5AC_unprotect(ptr noundef %91, ptr noundef nonnull @H5AC_FHEAP_DBLOCK, i64 noundef %2, ptr noundef %1, i32 noundef %.045) #4
  %93 = icmp slt i32 %92, 0
  br i1 %93, label %94, label %98

94:                                               ; preds = %89
  %95 = load i64, ptr @H5E_HEAP_g, align 8
  %96 = load i64, ptr @H5E_CANTUNPROTECT_g, align 8
  %97 = tail call i32 (ptr, ptr, i32, i64, i64, ptr, ...) @H5E_printf_stack(ptr noundef nonnull @.str.1, ptr noundef nonnull @__func__.H5HF__man_dblock_destroy, i32 noundef 305, i64 noundef %95, i64 noundef %96, ptr noundef nonnull @.str.16) #4
  br label %98

98:                                               ; preds = %94, %89
  %.1 = phi i32 [ -1, %94 ], [ %.046, %89 ]
  ret i32 %.1
}